target datalayout = "e-m:e-p270:32:32-p271:32:32-p272:64:64-i64:64-i128:128-f80:128-n8:16:32:64-S128"
target triple = "x86_64-unknown-linux-gnu"

%"class.std::set.0" = type { %"class.std::_Rb_tree.1" }
%"class.std::_Rb_tree.1" = type { %"struct.std::_Rb_tree<QuantLib::Observer *, QuantLib::Observer *, std::_Identity<QuantLib::Observer *>, std::less<QuantLib::Observer *>>::_Rb_tree_impl" }
%"struct.std::_Rb_tree<QuantLib::Observer *, QuantLib::Observer *, std::_Identity<QuantLib::Observer *>, std::less<QuantLib::Observer *>>::_Rb_tree_impl" = type { [8 x i8], %"struct.std::_Rb_tree_header" }
%"struct.std::_Rb_tree_header" = type { %"struct.std::_Rb_tree_node_base", i64 }
%"struct.std::_Rb_tree_node_base" = type { i32, ptr, ptr, ptr }
%"class.std::set" = type { %"class.std::_Rb_tree" }
%"class.std::_Rb_tree" = type { %"struct.std::_Rb_tree<boost::shared_ptr<QuantLib::Observable>, boost::shared_ptr<QuantLib::Observable>, std::_Identity<boost::shared_ptr<QuantLib::Observable>>, std::less<boost::shared_ptr<QuantLib::Observable>>>::_Rb_tree_impl" }
%"struct.std::_Rb_tree<boost::shared_ptr<QuantLib::Observable>, boost::shared_ptr<QuantLib::Observable>, std::_Identity<boost::shared_ptr<QuantLib::Observable>>, std::less<boost::shared_ptr<QuantLib::Observable>>>::_Rb_tree_impl" = type { [8 x i8], %"struct.std::_Rb_tree_header" }
%"class.boost::detail::shared_count" = type { ptr }
%"class.QuantLib::Observable" = type { ptr, %"class.std::set.0" }
%"class.QuantLib::GeneralizedOrnsteinUhlenbeckProcess" = type { %"class.QuantLib::StochasticProcess1D", double, double, %"class.std::function", %"class.std::function" }
%"class.QuantLib::StochasticProcess1D" = type { %"class.QuantLib::StochasticProcess", %"class.boost::shared_ptr.7" }
%"class.QuantLib::StochasticProcess" = type { %"class.QuantLib::Observer", %"class.QuantLib::Observable", %"class.boost::shared_ptr.6" }
%"class.QuantLib::Observer" = type { ptr, %"class.std::set" }
%"class.boost::shared_ptr.6" = type { ptr, %"class.boost::detail::shared_count" }
%"class.boost::shared_ptr.7" = type { ptr, %"class.boost::detail::shared_count" }
%"class.std::function" = type { %"class.std::_Function_base", ptr }
%"class.std::_Function_base" = type { %"union.std::_Any_data", ptr }
%"union.std::_Any_data" = type { %"union.std::_Nocopy_types" }
%"union.std::_Nocopy_types" = type { { i64, i64 } }

; Function Attrs: mustprogress nounwind uwtable
define linkonce_odr noundef zeroext i1 @_ZNKSt14_Function_base8_M_emptyEv(ptr noundef nonnull align 8 dereferenceable(24) %this) #1 comdat align 2 {
entry:
  %this.addr = alloca ptr, align 8
  store ptr %this, ptr %this.addr, align 8, !tbaa !3
  %this1 = load ptr, ptr %this.addr, align 8
  %_M_manager = getelementptr inbounds nuw %"class.std::_Function_base", ptr %this1, i32 0, i32 1
  %0 = load ptr, ptr %_M_manager, align 8, !tbaa !44
  %tobool = icmp ne ptr %0, null
  %lnot = xor i1 %tobool, true
  ret i1 %lnot
}

; Function Attrs: mustprogress nounwind uwtable
define linkonce_odr noundef double @_ZNSt14numeric_limitsIdE7epsilonEv() #1 comdat align 2 {
entry:
  ret double 0x3CB0000000000000
}

; Function Attrs: mustprogress uwtable
define linkonce_odr noundef double @_ZNKSt8functionIFddEEclEd(ptr noundef nonnull align 8 dereferenceable(32) %this, double noundef %__args) #2 comdat align 2 {
entry:
  %this.addr = alloca ptr, align 8
  %__args.addr = alloca double, align 8
  store ptr %this, ptr %this.addr, align 8, !tbaa !3
  store double %__args, ptr %__args.addr, align 8, !tbaa !12
  %this1 = load ptr, ptr %this.addr, align 8
  %call = call noundef zeroext i1 @_ZNKSt14_Function_base8_M_emptyEv(ptr noundef nonnull align 8 dereferenceable(24) %this1)
  br i1 %call, label %if.then, label %if.end

if.then:                                          ; preds = %entry
  call void @_ZSt25__throw_bad_function_callv() #22
  unreachable

if.end:                                           ; preds = %entry
  %_M_invoker = getelementptr inbounds nuw %"class.std::function", ptr %this1, i32 0, i32 1
  %0 = load ptr, ptr %_M_invoker, align 8, !tbaa !41
  %_M_functor = getelementptr inbounds nuw %"class.std::_Function_base", ptr %this1, i32 0, i32 0
  %call2 = call noundef double %0(ptr noundef nonnull align 8 dereferenceable(16) %_M_functor, ptr noundef nonnull align 8 dereferenceable(8) %__args.addr)
  ret double %call2
}

; Function Attrs: mustprogress uwtable
define noundef double @_ZNK8QuantLib35GeneralizedOrnsteinUhlenbeckProcess8varianceEddd(ptr noundef nonnull align 8 dereferenceable(224) %this, double noundef %t, double noundef %0, double noundef %dt) unnamed_addr #2 align 2 {
entry:
  %retval = alloca double, align 8
  %this.addr = alloca ptr, align 8
  %t.addr = alloca double, align 8
  %.addr = alloca double, align 8
  %dt.addr = alloca double, align 8
  %speed = alloca double, align 8
  %vol = alloca double, align 8
  %cleanup.dest.slot = alloca i32, align 4
  store ptr %this, ptr %this.addr, align 8, !tbaa !3
  store double %t, ptr %t.addr, align 8, !tbaa !12
  store double %0, ptr %.addr, align 8, !tbaa !12
  store double %dt, ptr %dt.addr, align 8, !tbaa !12
  %this1 = load ptr, ptr %this.addr, align 8
  call void @llvm.lifetime.start.p0(i64 8, ptr %speed) #11
  %speed_ = getelementptr inbounds nuw %"class.QuantLib::GeneralizedOrnsteinUhlenbeckProcess", ptr %this1, i32 0, i32 3
  %1 = load double, ptr %t.addr, align 8, !tbaa !12
  %call = call noundef double @_ZNKSt8functionIFddEEclEd(ptr noundef nonnull align 8 dereferenceable(32) %speed_, double noundef %1)
  store double %call, ptr %speed, align 8, !tbaa !12
  call void @llvm.lifetime.start.p0(i64 8, ptr %vol) #11
  %volatility_ = getelementptr inbounds nuw %"class.QuantLib::GeneralizedOrnsteinUhlenbeckProcess", ptr %this1, i32 0, i32 4
  %2 = load double, ptr %t.addr, align 8, !tbaa !12
  %call2 = call noundef double @_ZNKSt8functionIFddEEclEd(ptr noundef nonnull align 8 dereferenceable(32) %volatility_, double noundef %2)
  store double %call2, ptr %vol, align 8, !tbaa !12
  %3 = load double, ptr %speed, align 8, !tbaa !12
  %call3 = call noundef double @_ZNSt14numeric_limitsIdE7epsilonEv() #11
  %call4 = call double @sqrt(double noundef %call3) #11, !tbaa !45
  %cmp = fcmp olt double %3, %call4
  br i1 %cmp, label %if.then, label %if.else

if.then:                                          ; preds = %entry
  %4 = load double, ptr %vol, align 8, !tbaa !12
  %5 = load double, ptr %vol, align 8, !tbaa !12
  %mul = fmul double %4, %5
  %6 = load double, ptr %dt.addr, align 8, !tbaa !12
  %mul5 = fmul double %mul, %6
  store double %mul5, ptr %retval, align 8
  store i32 1, ptr %cleanup.dest.slot, align 4
  br label %cleanup

if.else:                                          ; preds = %entry
  %7 = load double, ptr %vol, align 8, !tbaa !12
  %mul6 = fmul double 5.000000e-01, %7
  %8 = load double, ptr %vol, align 8, !tbaa !12
  %mul7 = fmul double %mul6, %8
  %9 = load double, ptr %speed, align 8, !tbaa !12
  %div = fdiv double %mul7, %9
  %10 = load double, ptr %speed, align 8, !tbaa !12
  %mul8 = fmul double -2.000000e+00, %10
  %11 = load double, ptr %dt.addr, align 8, !tbaa !12
  %mul9 = fmul double %mul8, %11
  %call10 = call double @exp(double noundef %mul9) #11, !tbaa !45
  %sub = fsub double 1.000000e+00, %call10
  %mul11 = fmul double %div, %sub
  store double %mul11, ptr %retval, align 8
  store i32 1, ptr %cleanup.dest.slot, align 4
  br label %cleanup

cleanup:                                          ; preds = %if.else, %if.then
  call void @llvm.lifetime.end.p0(i64 8, ptr %vol) #11
  call void @llvm.lifetime.end.p0(i64 8, ptr %speed) #11
  %12 = load double, ptr %retval, align 8
  ret double %12
}