; Function Attrs: mustprogress uwtable
define noundef double @_ZNK8QuantLib35GeneralizedOrnsteinUhlenbeckProcess8varianceEddd(ptr noundef nonnull align 8 dereferenceable(224) %this, double noundef %t, double %0, double noundef %dt) unnamed_addr #6 align 2 {
entry:
  %__args.addr.i8 = alloca double, align 8
  %__args.addr.i = alloca double, align 8
  call void @llvm.lifetime.start.p0(i64 8, ptr nonnull %__args.addr.i)
  store double %t, ptr %__args.addr.i, align 8, !tbaa !59
  %_M_manager.i.i = getelementptr inbounds nuw i8, ptr %this, i64 176
  %1 = load ptr, ptr %_M_manager.i.i, align 8, !tbaa !49
  %tobool.not.i.i = icmp eq ptr %1, null
  br i1 %tobool.not.i.i, label %if.then.i, label %_ZNKSt8functionIFddEEclEd.exit

if.then.i:                                        ; preds = %entry
  tail call void @_ZSt25__throw_bad_function_callv() #26
  unreachable

_ZNKSt8functionIFddEEclEd.exit:                   ; preds = %entry
  %speed_ = getelementptr inbounds nuw i8, ptr %this, i64 160
  %_M_invoker.i = getelementptr inbounds nuw i8, ptr %this, i64 184
  %2 = load ptr, ptr %_M_invoker.i, align 8, !tbaa !48
  %call2.i = call noundef double %2(ptr noundef nonnull align 8 dereferenceable(16) %speed_, ptr noundef nonnull align 8 dereferenceable(8) %__args.addr.i)
  call void @llvm.lifetime.end.p0(i64 8, ptr nonnull %__args.addr.i)
  call void @llvm.lifetime.start.p0(i64 8, ptr nonnull %__args.addr.i8)
  store double %t, ptr %__args.addr.i8, align 8, !tbaa !59
  %_M_manager.i.i9 = getelementptr inbounds nuw i8, ptr %this, i64 208
  %3 = load ptr, ptr %_M_manager.i.i9, align 8, !tbaa !49
  %tobool.not.i.i10 = icmp eq ptr %3, null
  br i1 %tobool.not.i.i10, label %if.then.i13, label %_ZNKSt8functionIFddEEclEd.exit14

if.then.i13:                                      ; preds = %_ZNKSt8functionIFddEEclEd.exit
  call void @_ZSt25__throw_bad_function_callv() #26
  unreachable

_ZNKSt8functionIFddEEclEd.exit14:                 ; preds = %_ZNKSt8functionIFddEEclEd.exit
  %volatility_ = getelementptr inbounds nuw i8, ptr %this, i64 192
  %_M_invoker.i11 = getelementptr inbounds nuw i8, ptr %this, i64 216
  %4 = load ptr, ptr %_M_invoker.i11, align 8, !tbaa !48
  %call2.i12 = call noundef double %4(ptr noundef nonnull align 8 dereferenceable(16) %volatility_, ptr noundef nonnull align 8 dereferenceable(8) %__args.addr.i8)
  call void @llvm.lifetime.end.p0(i64 8, ptr nonnull %__args.addr.i8)
  %cmp = fcmp olt double %call2.i, 0x3E50000000000000
  br i1 %cmp, label %if.then, label %if.else

if.then:                                          ; preds = %_ZNKSt8functionIFddEEclEd.exit14
  %mul = fmul double %call2.i12, %call2.i12
  %mul5 = fmul double %dt, %mul
  br label %cleanup

if.else:                                          ; preds = %_ZNKSt8functionIFddEEclEd.exit14
  %mul6 = fmul double %call2.i12, 5.000000e-01
  %mul7 = fmul double %call2.i12, %mul6
  %div = fdiv double %mul7, %call2.i
  %mul8 = fmul double %call2.i, -2.000000e+00
  %mul9 = fmul double %dt, %mul8
  %call10 = call double @exp(double noundef %mul9) #24, !tbaa !60
  %sub = fsub double 1.000000e+00, %call10
  %mul11 = fmul double %div, %sub
  br label %cleanup

cleanup:                                          ; preds = %if.else, %if.then
  %retval.0 = phi double [ %mul5, %if.then ], [ %mul11, %if.else ]
  ret double %retval.0
}